target datalayout = "e-m:e-p270:32:32-p271:32:32-p272:64:64-i64:64-i128:128-f80:128-n8:16:32:64-S128"
target triple = "x86_64-unknown-linux-gnu"

%"class.euf::ackerman" = type <{ ptr, ptr, %class.hashtable, ptr, ptr, i32, i32, i32, [4 x i8] }>
%class.hashtable = type { %class.core_hashtable.base, [4 x i8] }
%class.core_hashtable.base = type <{ ptr, i32, i32, i32 }>
%"struct.euf::ackerman::inference" = type <{ %class.dll_base, ptr, ptr, ptr, i32, i8, [3 x i8] }>
%class.dll_base = type { ptr, ptr }
%class.ast = type { i32, i24, i32, i32 }

; Function Attrs: mustprogress nounwind uwtable
define linkonce_odr hidden noundef i32 @_ZNK3ast13get_ref_countEv(ptr noundef nonnull align 4 dereferenceable(16) %this) #4 comdat align 2 {
entry:
  %this.addr = alloca ptr, align 8
  store ptr %this, ptr %this.addr, align 8
  %this1 = load ptr, ptr %this.addr, align 8
  %m_ref_count = getelementptr inbounds %class.ast, ptr %this1, i32 0, i32 2
  %0 = load i32, ptr %m_ref_count, align 4
  ret i32 %0
}

; Function Attrs: mustprogress nounwind uwtable
define linkonce_odr hidden void @_ZN3ast7dec_refEv(ptr noundef nonnull align 4 dereferenceable(16) %this) #4 comdat align 2 {
entry:
  %this.addr = alloca ptr, align 8
  store ptr %this, ptr %this.addr, align 8
  %this1 = load ptr, ptr %this.addr, align 8
  %m_ref_count = getelementptr inbounds %class.ast, ptr %this1, i32 0, i32 2
  %0 = load i32, ptr %m_ref_count, align 4
  %dec = add i32 %0, -1
  store i32 %dec, ptr %m_ref_count, align 4
  ret void
}

; Function Attrs: mustprogress uwtable
define linkonce_odr hidden void @_Z7deallocIN3euf8ackerman9inferenceEEvPT_(ptr noundef %ptr) #5 comdat {
entry:
  %ptr.addr = alloca ptr, align 8
  store ptr %ptr, ptr %ptr.addr, align 8
  %0 = load ptr, ptr %ptr.addr, align 8
  %cmp = icmp eq ptr %0, null
  br i1 %cmp, label %if.then, label %if.end

if.then:                                          ; preds = %entry
  br label %return

if.end:                                           ; preds = %entry
  %1 = load ptr, ptr %ptr.addr, align 8
  call void @_ZN6memory10deallocateEPv(ptr noundef %1)
  br label %return

return:                                           ; preds = %if.end, %if.then
  ret void
}

; Function Attrs: mustprogress uwtable
define linkonce_odr hidden void @_ZN11ast_manager7dec_refEP3ast(ptr noundef nonnull align 8 dereferenceable(976) %this, ptr noundef %n) #5 comdat align 2 {
entry:
  %this.addr = alloca ptr, align 8
  %n.addr = alloca ptr, align 8
  store ptr %this, ptr %this.addr, align 8
  store ptr %n, ptr %n.addr, align 8
  %this1 = load ptr, ptr %this.addr, align 8
  %0 = load ptr, ptr %n.addr, align 8
  %tobool = icmp ne ptr %0, null
  br i1 %tobool, label %if.then, label %if.end3

if.then:                                          ; preds = %entry
  %1 = load ptr, ptr %n.addr, align 8
  call void @_ZN3ast7dec_refEv(ptr noundef nonnull align 4 dereferenceable(16) %1)
  %2 = load ptr, ptr %n.addr, align 8
  %call = call noundef i32 @_ZNK3ast13get_ref_countEv(ptr noundef nonnull align 4 dereferenceable(16) %2)
  %cmp = icmp eq i32 %call, 0
  br i1 %cmp, label %if.then2, label %if.end

if.then2:                                         ; preds = %if.then
  %3 = load ptr, ptr %n.addr, align 8
  call void @_ZN11ast_manager11delete_nodeEP3ast(ptr noundef nonnull align 8 dereferenceable(976) %this1, ptr noundef %3)
  br label %if.end

if.end:                                           ; preds = %if.then2, %if.then
  br label %if.end3

if.end3:                                          ; preds = %if.end, %entry
  ret void
}

; Function Attrs: mustprogress uwtable
define linkonce_odr hidden void @_ZN14core_hashtableI18default_hash_entryIPN3euf8ackerman9inferenceEENS2_14inference_hashENS2_12inference_eqEE5eraseERKS4_(ptr noundef nonnull align 8 dereferenceable(20) %this, ptr noundef nonnull align 8 dereferenceable(8) %e) #5 comdat align 2 {
entry:
  %this.addr = alloca ptr, align 8
  %e.addr = alloca ptr, align 8
  store ptr %this, ptr %this.addr, align 8
  store ptr %e, ptr %e.addr, align 8
  %this1 = load ptr, ptr %this.addr, align 8
  %0 = load ptr, ptr %e.addr, align 8
  call void @_ZN14core_hashtableI18default_hash_entryIPN3euf8ackerman9inferenceEENS2_14inference_hashENS2_12inference_eqEE6removeERKS4_(ptr noundef nonnull align 8 dereferenceable(20) %this1, ptr noundef nonnull align 8 dereferenceable(8) %0)
  ret void
}

; Function Attrs: mustprogress nounwind uwtable
define linkonce_odr hidden void @_ZN8dll_baseIN3euf8ackerman9inferenceEE11remove_fromERPS2_S4_(ptr noundef nonnull align 8 dereferenceable(8) %list, ptr noundef %elem) #4 comdat align 2 {
entry:
  %list.addr = alloca ptr, align 8
  %elem.addr = alloca ptr, align 8
  %next = alloca ptr, align 8
  %prev = alloca ptr, align 8
  store ptr %list, ptr %list.addr, align 8
  store ptr %elem, ptr %elem.addr, align 8
  %0 = load ptr, ptr %list.addr, align 8
  %1 = load ptr, ptr %0, align 8
  %m_next = getelementptr inbounds %class.dll_base, ptr %1, i32 0, i32 0
  %2 = load ptr, ptr %m_next, align 8
  %3 = load ptr, ptr %list.addr, align 8
  %4 = load ptr, ptr %3, align 8
  %cmp = icmp eq ptr %2, %4
  br i1 %cmp, label %if.then, label %if.end

if.then:                                          ; preds = %entry
  %5 = load ptr, ptr %list.addr, align 8
  store ptr null, ptr %5, align 8
  br label %return

if.end:                                           ; preds = %entry
  %6 = load ptr, ptr %list.addr, align 8
  %7 = load ptr, ptr %6, align 8
  %8 = load ptr, ptr %elem.addr, align 8
  %cmp1 = icmp eq ptr %7, %8
  br i1 %cmp1, label %if.then2, label %if.end4

if.then2:                                         ; preds = %if.end
  %9 = load ptr, ptr %elem.addr, align 8
  %m_next3 = getelementptr inbounds %class.dll_base, ptr %9, i32 0, i32 0
  %10 = load ptr, ptr %m_next3, align 8
  %11 = load ptr, ptr %list.addr, align 8
  store ptr %10, ptr %11, align 8
  br label %if.end4

if.end4:                                          ; preds = %if.then2, %if.end
  %12 = load ptr, ptr %elem.addr, align 8
  %m_next5 = getelementptr inbounds %class.dll_base, ptr %12, i32 0, i32 0
  %13 = load ptr, ptr %m_next5, align 8
  store ptr %13, ptr %next, align 8
  %14 = load ptr, ptr %elem.addr, align 8
  %m_prev = getelementptr inbounds %class.dll_base, ptr %14, i32 0, i32 1
  %15 = load ptr, ptr %m_prev, align 8
  store ptr %15, ptr %prev, align 8
  %16 = load ptr, ptr %next, align 8
  %17 = load ptr, ptr %prev, align 8
  %m_next6 = getelementptr inbounds %class.dll_base, ptr %17, i32 0, i32 0
  store ptr %16, ptr %m_next6, align 8
  %18 = load ptr, ptr %prev, align 8
  %19 = load ptr, ptr %next, align 8
  %m_prev7 = getelementptr inbounds %class.dll_base, ptr %19, i32 0, i32 1
  store ptr %18, ptr %m_prev7, align 8
  br label %return

return:                                           ; preds = %if.end4, %if.then
  ret void
}

; Function Attrs: mustprogress uwtable
define hidden void @_ZN3euf8ackerman6removeEPNS0_9inferenceE(ptr noundef nonnull align 8 dereferenceable(68) %this, ptr noundef %inf) #5 align 2 {
entry:
  %this.addr = alloca ptr, align 8
  %inf.addr = alloca ptr, align 8
  store ptr %this, ptr %this.addr, align 8
  store ptr %inf, ptr %inf.addr, align 8
  %this1 = load ptr, ptr %this.addr, align 8
  %m_queue = getelementptr inbounds %"class.euf::ackerman", ptr %this1, i32 0, i32 3
  %0 = load ptr, ptr %inf.addr, align 8
  call void @_ZN8dll_baseIN3euf8ackerman9inferenceEE11remove_fromERPS2_S4_(ptr noundef nonnull align 8 dereferenceable(8) %m_queue, ptr noundef %0)
  %m_table = getelementptr inbounds %"class.euf::ackerman", ptr %this1, i32 0, i32 2
  call void @_ZN14core_hashtableI18default_hash_entryIPN3euf8ackerman9inferenceEENS2_14inference_hashENS2_12inference_eqEE5eraseERKS4_(ptr noundef nonnull align 8 dereferenceable(20) %m_table, ptr noundef nonnull align 8 dereferenceable(8) %inf.addr)
  %m = getelementptr inbounds %"class.euf::ackerman", ptr %this1, i32 0, i32 1
  %1 = load ptr, ptr %m, align 8
  %2 = load ptr, ptr %inf.addr, align 8
  %a = getelementptr inbounds %"struct.euf::ackerman::inference", ptr %2, i32 0, i32 1
  %3 = load ptr, ptr %a, align 8
  call void @_ZN11ast_manager7dec_refEP3ast(ptr noundef nonnull align 8 dereferenceable(976) %1, ptr noundef %3)
  %m2 = getelementptr inbounds %"class.euf::ackerman", ptr %this1, i32 0, i32 1
  %4 = load ptr, ptr %m2, align 8
  %5 = load ptr, ptr %inf.addr, align 8
  %b = getelementptr inbounds %"struct.euf::ackerman::inference", ptr %5, i32 0, i32 2
  %6 = load ptr, ptr %b, align 8
  call void @_ZN11ast_manager7dec_refEP3ast(ptr noundef nonnull align 8 dereferenceable(976) %4, ptr noundef %6)
  %m3 = getelementptr inbounds %"class.euf::ackerman", ptr %this1, i32 0, i32 1
  %7 = load ptr, ptr %m3, align 8
  %8 = load ptr, ptr %inf.addr, align 8
  %c = getelementptr inbounds %"struct.euf::ackerman::inference", ptr %8, i32 0, i32 3
  %9 = load ptr, ptr %c, align 8
  call void @_ZN11ast_manager7dec_refEP3ast(ptr noundef nonnull align 8 dereferenceable(976) %7, ptr noundef %9)
  %10 = load ptr, ptr %inf.addr, align 8
  call void @_Z7deallocIN3euf8ackerman9inferenceEEvPT_(ptr noundef %10)
  ret void
}