; Function Attrs: mustprogress uwtable
define hidden void @_ZN3euf8ackerman6removeEPNS0_9inferenceE(ptr noundef nonnull align 8 dereferenceable(68) %this, ptr noundef %inf) local_unnamed_addr #3 align 2 {
entry:
  %inf.addr = alloca ptr, align 8
  store ptr %inf, ptr %inf.addr, align 8
  %m_queue = getelementptr inbounds i8, ptr %this, i64 40
  %0 = load ptr, ptr %m_queue, align 8
  %1 = load ptr, ptr %0, align 8
  %cmp.i = icmp eq ptr %1, %0
  br i1 %cmp.i, label %if.then.i, label %if.end.i

if.then.i:                                        ; preds = %entry
  store ptr null, ptr %m_queue, align 8
  br label %_ZN8dll_baseIN3euf8ackerman9inferenceEE11remove_fromERPS2_S4_.exit

if.end.i:                                         ; preds = %entry
  %cmp1.i = icmp eq ptr %0, %inf
  %.pre.i = load ptr, ptr %inf, align 8
  br i1 %cmp1.i, label %if.then2.i, label %if.end4.i

if.then2.i:                                       ; preds = %if.end.i
  store ptr %.pre.i, ptr %m_queue, align 8
  br label %if.end4.i

if.end4.i:                                        ; preds = %if.then2.i, %if.end.i
  %m_prev.i = getelementptr inbounds i8, ptr %inf, i64 8
  %2 = load ptr, ptr %m_prev.i, align 8
  store ptr %.pre.i, ptr %2, align 8
  %m_prev7.i = getelementptr inbounds i8, ptr %.pre.i, i64 8
  store ptr %2, ptr %m_prev7.i, align 8
  br label %_ZN8dll_baseIN3euf8ackerman9inferenceEE11remove_fromERPS2_S4_.exit

_ZN8dll_baseIN3euf8ackerman9inferenceEE11remove_fromERPS2_S4_.exit: ; preds = %if.then.i, %if.end4.i
  %m_table = getelementptr inbounds i8, ptr %this, i64 16
  call void @_ZN14core_hashtableI18default_hash_entryIPN3euf8ackerman9inferenceEENS2_14inference_hashENS2_12inference_eqEE6removeERKS4_(ptr noundef nonnull align 8 dereferenceable(20) %m_table, ptr noundef nonnull align 8 dereferenceable(8) %inf.addr)
  %m = getelementptr inbounds i8, ptr %this, i64 8
  %3 = load ptr, ptr %m, align 8
  %4 = load ptr, ptr %inf.addr, align 8
  %a = getelementptr inbounds i8, ptr %4, i64 16
  %5 = load ptr, ptr %a, align 8
  %tobool.not.i = icmp eq ptr %5, null
  br i1 %tobool.not.i, label %_ZN11ast_manager7dec_refEP3ast.exit, label %if.then.i1

if.then.i1:                                       ; preds = %_ZN8dll_baseIN3euf8ackerman9inferenceEE11remove_fromERPS2_S4_.exit
  %m_ref_count.i.i = getelementptr inbounds i8, ptr %5, i64 8
  %6 = load i32, ptr %m_ref_count.i.i, align 4
  %dec.i.i = add i32 %6, -1
  store i32 %dec.i.i, ptr %m_ref_count.i.i, align 4
  %cmp.i2 = icmp eq i32 %dec.i.i, 0
  br i1 %cmp.i2, label %if.then2.i3, label %_ZN11ast_manager7dec_refEP3ast.exit

if.then2.i3:                                      ; preds = %if.then.i1
  call void @_ZN11ast_manager11delete_nodeEP3ast(ptr noundef nonnull align 8 dereferenceable(976) %3, ptr noundef nonnull %5)
  %.pre = load ptr, ptr %inf.addr, align 8
  br label %_ZN11ast_manager7dec_refEP3ast.exit

_ZN11ast_manager7dec_refEP3ast.exit:              ; preds = %_ZN8dll_baseIN3euf8ackerman9inferenceEE11remove_fromERPS2_S4_.exit, %if.then.i1, %if.then2.i3
  %7 = phi ptr [ %4, %_ZN8dll_baseIN3euf8ackerman9inferenceEE11remove_fromERPS2_S4_.exit ], [ %4, %if.then.i1 ], [ %.pre, %if.then2.i3 ]
  %8 = load ptr, ptr %m, align 8
  %b = getelementptr inbounds i8, ptr %7, i64 24
  %9 = load ptr, ptr %b, align 8
  %tobool.not.i4 = icmp eq ptr %9, null
  br i1 %tobool.not.i4, label %_ZN11ast_manager7dec_refEP3ast.exit10, label %if.then.i5

if.then.i5:                                       ; preds = %_ZN11ast_manager7dec_refEP3ast.exit
  %m_ref_count.i.i6 = getelementptr inbounds i8, ptr %9, i64 8
  %10 = load i32, ptr %m_ref_count.i.i6, align 4
  %dec.i.i7 = add i32 %10, -1
  store i32 %dec.i.i7, ptr %m_ref_count.i.i6, align 4
  %cmp.i8 = icmp eq i32 %dec.i.i7, 0
  br i1 %cmp.i8, label %if.then2.i9, label %_ZN11ast_manager7dec_refEP3ast.exit10

if.then2.i9:                                      ; preds = %if.then.i5
  call void @_ZN11ast_manager11delete_nodeEP3ast(ptr noundef nonnull align 8 dereferenceable(976) %8, ptr noundef nonnull %9)
  %.pre20 = load ptr, ptr %inf.addr, align 8
  br label %_ZN11ast_manager7dec_refEP3ast.exit10

_ZN11ast_manager7dec_refEP3ast.exit10:            ; preds = %_ZN11ast_manager7dec_refEP3ast.exit, %if.then.i5, %if.then2.i9
  %11 = phi ptr [ %7, %_ZN11ast_manager7dec_refEP3ast.exit ], [ %7, %if.then.i5 ], [ %.pre20, %if.then2.i9 ]
  %12 = load ptr, ptr %m, align 8
  %c = getelementptr inbounds i8, ptr %11, i64 32
  %13 = load ptr, ptr %c, align 8
  %tobool.not.i11 = icmp eq ptr %13, null
  br i1 %tobool.not.i11, label %if.end.i19, label %if.then.i12

if.then.i12:                                      ; preds = %_ZN11ast_manager7dec_refEP3ast.exit10
  %m_ref_count.i.i13 = getelementptr inbounds i8, ptr %13, i64 8
  %14 = load i32, ptr %m_ref_count.i.i13, align 4
  %dec.i.i14 = add i32 %14, -1
  store i32 %dec.i.i14, ptr %m_ref_count.i.i13, align 4
  %cmp.i15 = icmp eq i32 %dec.i.i14, 0
  br i1 %cmp.i15, label %_ZN11ast_manager7dec_refEP3ast.exit17, label %if.end.i19

_ZN11ast_manager7dec_refEP3ast.exit17:            ; preds = %if.then.i12
  call void @_ZN11ast_manager11delete_nodeEP3ast(ptr noundef nonnull align 8 dereferenceable(976) %12, ptr noundef nonnull %13)
  %.pr.pre = load ptr, ptr %inf.addr, align 8
  %cmp.i18 = icmp eq ptr %.pr.pre, null
  br i1 %cmp.i18, label %_Z7deallocIN3euf8ackerman9inferenceEEvPT_.exit, label %if.end.i19

if.end.i19:                                       ; preds = %if.then.i12, %_ZN11ast_manager7dec_refEP3ast.exit10, %_ZN11ast_manager7dec_refEP3ast.exit17
  %15 = phi ptr [ %.pr.pre, %_ZN11ast_manager7dec_refEP3ast.exit17 ], [ %11, %_ZN11ast_manager7dec_refEP3ast.exit10 ], [ %11, %if.then.i12 ]
  call void @_ZN6memory10deallocateEPv(ptr noundef nonnull %15)
  br label %_Z7deallocIN3euf8ackerman9inferenceEEvPT_.exit

_Z7deallocIN3euf8ackerman9inferenceEEvPT_.exit:   ; preds = %_ZN11ast_manager7dec_refEP3ast.exit17, %if.end.i19
  ret void
}